target datalayout = "e-m:e-p270:32:32-p271:32:32-p272:64:64-i64:64-i128:128-f80:128-n8:16:32:64-S128"
target triple = "x86_64-pc-linux-gnu"

%struct.png_struct_def = type { [1 x %struct.__jmp_buf_tag], ptr, ptr, i64, ptr, ptr, ptr, ptr, ptr, ptr, ptr, ptr, i8, i8, i32, i32, i32, i32, %struct.z_stream_s, i32, i32, i32, i32, i64, i32, i32, i32, ptr, ptr, i64, i32, i32, ptr, i16, i32, i16, i8, i8, i8, i8, i8, i8, i8, i8, i8, i8, i8, i8, i8, i8, i16, i8, i32, %struct.png_color_16_struct, %struct.png_color_16_struct, i32, i32, ptr, ptr, ptr, ptr, ptr, ptr, %struct.png_color_8_struct, %struct.png_color_8_struct, ptr, %struct.png_color_16_struct, ptr, ptr, ptr, ptr, ptr, ptr, ptr, ptr, ptr, i32, i32, i64, i64, i64, i64, i32, i32, ptr, ptr, [29 x i8], i32, ptr, ptr, i32, i32, ptr, i8, i8, i16, i16, ptr, i32, i8, ptr, ptr, ptr, ptr, ptr, ptr, ptr, i8, i32, i32, i32, i64, %struct.png_unknown_chunk_t, i64, ptr, i64, i32, i32, ptr, [4 x ptr], %struct.png_colorspace }
%struct.__jmp_buf_tag = type { [8 x i64], i32, %struct.__sigset_t }
%struct.__sigset_t = type { [16 x i64] }
%struct.z_stream_s = type { ptr, i32, i64, ptr, i32, i64, ptr, ptr, ptr, ptr, ptr, i32, i64, i64 }
%struct.png_color_8_struct = type { i8, i8, i8, i8, i8 }
%struct.png_color_16_struct = type { i8, i16, i16, i16, i16 }
%struct.png_unknown_chunk_t = type { [5 x i8], ptr, i64, i8 }
%struct.png_colorspace = type { i32, %struct.png_xy, %struct.png_XYZ, i16, i16 }
%struct.png_xy = type { i32, i32, i32, i32, i32, i32, i32, i32 }
%struct.png_XYZ = type { i32, i32, i32, i32, i32, i32, i32, i32, i32 }

@.str.33 = private unnamed_addr constant [24 x i8] c"no space in chunk cache\00", align 1
@.str.35 = private unnamed_addr constant [20 x i8] c"error in user chunk\00", align 1
@.str.36 = private unnamed_addr constant [22 x i8] c"Saving unknown chunk:\00", align 1
@.str.37 = private unnamed_addr constant [76 x i8] c"forcing save of an unhandled chunk; please call png_set_keep_unknown_chunks\00", align 1
@.str.38 = private unnamed_addr constant [25 x i8] c"unhandled critical chunk\00", align 1

; Function Attrs: nounwind uwtable
define hidden void @png_handle_unknown(ptr noalias noundef %0, ptr noalias noundef %1, i32 noundef %2, i32 noundef %3) #0 {
  %5 = alloca ptr, align 8
  %6 = alloca ptr, align 8
  %7 = alloca i32, align 4
  %8 = alloca i32, align 4
  %9 = alloca i32, align 4
  %10 = alloca i32, align 4
  store ptr %0, ptr %5, align 8
  store ptr %1, ptr %6, align 8
  store i32 %2, ptr %7, align 4
  store i32 %3, ptr %8, align 4
  store i32 0, ptr %9, align 4
  %11 = load ptr, ptr %5, align 8
  %12 = getelementptr inbounds %struct.png_struct_def, ptr %11, i32 0, i32 89
  %13 = load ptr, ptr %12, align 8
  %14 = icmp ne ptr %13, null
  br i1 %14, label %15, label %53

15:                                               ; preds = %4
  %16 = load ptr, ptr %5, align 8
  %17 = load i32, ptr %7, align 4
  %18 = call i32 @png_cache_unknown_chunk(ptr noundef %16, i32 noundef %17)
  %19 = icmp ne i32 %18, 0
  br i1 %19, label %20, label %51

20:                                               ; preds = %15
  %21 = load ptr, ptr %5, align 8
  %22 = getelementptr inbounds %struct.png_struct_def, ptr %21, i32 0, i32 89
  %23 = load ptr, ptr %22, align 8
  %24 = load ptr, ptr %5, align 8
  %25 = load ptr, ptr %5, align 8
  %26 = getelementptr inbounds %struct.png_struct_def, ptr %25, i32 0, i32 112
  %27 = call i32 %23(ptr noundef %24, ptr noundef %26)
  store i32 %27, ptr %10, align 4
  %28 = load i32, ptr %10, align 4
  %29 = icmp slt i32 %28, 0
  br i1 %29, label %30, label %32

30:                                               ; preds = %20
  %31 = load ptr, ptr %5, align 8
  call void @png_chunk_error(ptr noundef %31, ptr noundef @.str.35) #6
  unreachable

32:                                               ; preds = %20
  %33 = load i32, ptr %10, align 4
  %34 = icmp eq i32 %33, 0
  br i1 %34, label %35, label %48

35:                                               ; preds = %32
  %36 = load i32, ptr %8, align 4
  %37 = icmp slt i32 %36, 2
  br i1 %37, label %38, label %47

38:                                               ; preds = %35
  %39 = load ptr, ptr %5, align 8
  %40 = getelementptr inbounds %struct.png_struct_def, ptr %39, i32 0, i32 90
  %41 = load i32, ptr %40, align 8
  %42 = icmp slt i32 %41, 2
  br i1 %42, label %43, label %46

43:                                               ; preds = %38
  %44 = load ptr, ptr %5, align 8
  call void @png_chunk_warning(ptr noundef %44, ptr noundef @.str.36)
  %45 = load ptr, ptr %5, align 8
  call void @png_app_warning(ptr noundef %45, ptr noundef @.str.37)
  br label %46

46:                                               ; preds = %43, %38
  store i32 2, ptr %8, align 4
  br label %47

47:                                               ; preds = %46, %35
  br label %49

48:                                               ; preds = %32
  store i32 1, ptr %9, align 4
  store i32 1, ptr %8, align 4
  br label %49

49:                                               ; preds = %48, %47
  br label %50

50:                                               ; preds = %49
  br label %52

51:                                               ; preds = %15
  store i32 1, ptr %8, align 4
  br label %52

52:                                               ; preds = %51, %50
  br label %85

53:                                               ; preds = %4
  %54 = load i32, ptr %8, align 4
  %55 = icmp eq i32 %54, 0
  br i1 %55, label %56, label %60

56:                                               ; preds = %53
  %57 = load ptr, ptr %5, align 8
  %58 = getelementptr inbounds %struct.png_struct_def, ptr %57, i32 0, i32 90
  %59 = load i32, ptr %58, align 8
  store i32 %59, ptr %8, align 4
  br label %60

60:                                               ; preds = %56, %53
  %61 = load i32, ptr %8, align 4
  %62 = icmp eq i32 %61, 3
  br i1 %62, label %73, label %63

63:                                               ; preds = %60
  %64 = load i32, ptr %8, align 4
  %65 = icmp eq i32 %64, 2
  br i1 %65, label %66, label %80

66:                                               ; preds = %63
  %67 = load ptr, ptr %5, align 8
  %68 = getelementptr inbounds %struct.png_struct_def, ptr %67, i32 0, i32 26
  %69 = load i32, ptr %68, align 8
  %70 = lshr i32 %69, 29
  %71 = and i32 1, %70
  %72 = icmp ne i32 %71, 0
  br i1 %72, label %73, label %80

73:                                               ; preds = %66, %60
  %74 = load ptr, ptr %5, align 8
  %75 = load i32, ptr %7, align 4
  %76 = call i32 @png_cache_unknown_chunk(ptr noundef %74, i32 noundef %75)
  %77 = icmp eq i32 %76, 0
  br i1 %77, label %78, label %79

78:                                               ; preds = %73
  store i32 1, ptr %8, align 4
  br label %79

79:                                               ; preds = %78, %73
  br label %84

80:                                               ; preds = %66, %63
  %81 = load ptr, ptr %5, align 8
  %82 = load i32, ptr %7, align 4
  %83 = call i32 @png_crc_finish(ptr noundef %81, i32 noundef %82)
  br label %84

84:                                               ; preds = %80, %79
  br label %85

85:                                               ; preds = %84, %52
  %86 = load i32, ptr %8, align 4
  %87 = icmp eq i32 %86, 3
  br i1 %87, label %98, label %88

88:                                               ; preds = %85
  %89 = load i32, ptr %8, align 4
  %90 = icmp eq i32 %89, 2
  br i1 %90, label %91, label %118

91:                                               ; preds = %88
  %92 = load ptr, ptr %5, align 8
  %93 = getelementptr inbounds %struct.png_struct_def, ptr %92, i32 0, i32 26
  %94 = load i32, ptr %93, align 8
  %95 = lshr i32 %94, 29
  %96 = and i32 1, %95
  %97 = icmp ne i32 %96, 0
  br i1 %97, label %98, label %118

98:                                               ; preds = %91, %85
  %99 = load ptr, ptr %5, align 8
  %100 = getelementptr inbounds %struct.png_struct_def, ptr %99, i32 0, i32 110
  %101 = load i32, ptr %100, align 4
  switch i32 %101, label %107 [
    i32 2, label %102
    i32 1, label %106
    i32 0, label %112
  ]

102:                                              ; preds = %98
  %103 = load ptr, ptr %5, align 8
  %104 = getelementptr inbounds %struct.png_struct_def, ptr %103, i32 0, i32 110
  store i32 1, ptr %104, align 4
  %105 = load ptr, ptr %5, align 8
  call void @png_chunk_benign_error(ptr noundef %105, ptr noundef @.str.33)
  br label %106

106:                                              ; preds = %102, %98
  br label %117

107:                                              ; preds = %98
  %108 = load ptr, ptr %5, align 8
  %109 = getelementptr inbounds %struct.png_struct_def, ptr %108, i32 0, i32 110
  %110 = load i32, ptr %109, align 4
  %111 = add i32 %110, -1
  store i32 %111, ptr %109, align 4
  br label %112

112:                                              ; preds = %107, %98
  %113 = load ptr, ptr %5, align 8
  %114 = load ptr, ptr %6, align 8
  %115 = load ptr, ptr %5, align 8
  %116 = getelementptr inbounds %struct.png_struct_def, ptr %115, i32 0, i32 112
  call void @png_set_unknown_chunks(ptr noundef %113, ptr noundef %114, ptr noundef %116, i32 noundef 1)
  store i32 1, ptr %9, align 4
  br label %117

117:                                              ; preds = %112, %106
  br label %118

118:                                              ; preds = %117, %91, %88
  %119 = load ptr, ptr %5, align 8
  %120 = getelementptr inbounds %struct.png_struct_def, ptr %119, i32 0, i32 112
  %121 = getelementptr inbounds %struct.png_unknown_chunk_t, ptr %120, i32 0, i32 1
  %122 = load ptr, ptr %121, align 8
  %123 = icmp ne ptr %122, null
  br i1 %123, label %124, label %130

124:                                              ; preds = %118
  %125 = load ptr, ptr %5, align 8
  %126 = load ptr, ptr %5, align 8
  %127 = getelementptr inbounds %struct.png_struct_def, ptr %126, i32 0, i32 112
  %128 = getelementptr inbounds %struct.png_unknown_chunk_t, ptr %127, i32 0, i32 1
  %129 = load ptr, ptr %128, align 8
  call void @png_free(ptr noundef %125, ptr noundef %129)
  br label %130

130:                                              ; preds = %124, %118
  %131 = load ptr, ptr %5, align 8
  %132 = getelementptr inbounds %struct.png_struct_def, ptr %131, i32 0, i32 112
  %133 = getelementptr inbounds %struct.png_unknown_chunk_t, ptr %132, i32 0, i32 1
  store ptr null, ptr %133, align 8
  %134 = load i32, ptr %9, align 4
  %135 = icmp eq i32 %134, 0
  br i1 %135, label %136, label %145

136:                                              ; preds = %130
  %137 = load ptr, ptr %5, align 8
  %138 = getelementptr inbounds %struct.png_struct_def, ptr %137, i32 0, i32 26
  %139 = load i32, ptr %138, align 8
  %140 = lshr i32 %139, 29
  %141 = and i32 1, %140
  %142 = icmp ne i32 %141, 0
  br i1 %142, label %145, label %143

143:                                              ; preds = %136
  %144 = load ptr, ptr %5, align 8
  call void @png_chunk_error(ptr noundef %144, ptr noundef @.str.38) #6
  unreachable

145:                                              ; preds = %136, %130
  ret void
}